; Function Attrs: mustprogress uwtable
define hidden void @_ZN6duckdb14PostgresParser8TokenizeERKNSt7__cxx1112basic_stringIcSt11char_traitsIcESaIcEEE(ptr dead_on_unwind noalias writable writeonly sret(%"class.duckdb::vector") align 8 captures(none) %0, ptr noundef nonnull readonly align 8 captures(none) dereferenceable(32) %1) local_unnamed_addr #2 align 2 personality ptr @__gxx_personality_v0 {
  %3 = alloca %"class.std::vector", align 8
  tail call void @_ZN17duckdb_libpgquery14pg_parser_initEv()
  call void @llvm.lifetime.start.p0(i64 24, ptr nonnull %3) #10
  %4 = load ptr, ptr %1, align 8, !tbaa !20
  call void @_ZN17duckdb_libpgquery8tokenizeEPKc(ptr dead_on_unwind nonnull writable sret(%"class.std::vector") align 8 %3, ptr noundef %4)
  invoke void @_ZN17duckdb_libpgquery17pg_parser_cleanupEv()
          to label %_ZNSt6vectorIN17duckdb_libpgquery17PGSimplifiedTokenESaIS1_EED2Ev.exit unwind label %12

_ZNSt6vectorIN17duckdb_libpgquery17PGSimplifiedTokenESaIS1_EED2Ev.exit: ; preds = %2
  %5 = load ptr, ptr %3, align 8, !tbaa !29
  store ptr %5, ptr %0, align 8, !tbaa !29
  %6 = getelementptr inbounds nuw i8, ptr %0, i64 8
  %7 = getelementptr inbounds nuw i8, ptr %3, i64 8
  %8 = load ptr, ptr %7, align 8, !tbaa !32
  store ptr %8, ptr %6, align 8, !tbaa !32
  %9 = getelementptr inbounds nuw i8, ptr %0, i64 16
  %10 = getelementptr inbounds nuw i8, ptr %3, i64 16
  %11 = load ptr, ptr %10, align 8, !tbaa !33
  store ptr %11, ptr %9, align 8, !tbaa !33
  call void @llvm.lifetime.end.p0(i64 24, ptr nonnull %3) #10
  ret void

12:                                               ; preds = %2
  %13 = landingpad { ptr, i32 }
          cleanup
  %14 = load ptr, ptr %3, align 8, !tbaa !29
  %.not.i.i.i2 = icmp eq ptr %14, null
  br i1 %.not.i.i.i2, label %_ZNSt6vectorIN17duckdb_libpgquery17PGSimplifiedTokenESaIS1_EED2Ev.exit3, label %15

15:                                               ; preds = %12
  call void @_ZdlPv(ptr noundef nonnull %14) #11
  br label %_ZNSt6vectorIN17duckdb_libpgquery17PGSimplifiedTokenESaIS1_EED2Ev.exit3

_ZNSt6vectorIN17duckdb_libpgquery17PGSimplifiedTokenESaIS1_EED2Ev.exit3: ; preds = %12, %15
  call void @llvm.lifetime.end.p0(i64 24, ptr nonnull %3) #10
  resume { ptr, i32 } %13
}